target datalayout = "e-m:e-p270:32:32-p271:32:32-p272:64:64-i64:64-i128:128-f80:128-n8:16:32:64-S128"
target triple = "x86_64-pc-linux-gnu"

@.str.46 = private unnamed_addr constant [10 x i8] c"1cert.p12\00", align 1

; Function Attrs: nounwind uwtable
define internal i32 @test_single_cert_no_attrs() #0 {
  %1 = alloca ptr, align 8
  call void @llvm.lifetime.start.p0(i64 8, ptr %1) #4
  %2 = call ptr @new_pkcs12_builder(ptr noundef @.str.46)
  store ptr %2, ptr %1, align 8, !tbaa !15
  %3 = load ptr, ptr %1, align 8, !tbaa !15
  call void @start_pkcs12(ptr noundef %3)
  %4 = load ptr, ptr %1, align 8, !tbaa !15
  call void @start_contentinfo(ptr noundef %4)
  %5 = load ptr, ptr %1, align 8, !tbaa !15
  call void @add_certbag(ptr noundef %5, ptr noundef @CERT1, i32 noundef 497, ptr noundef null)
  %6 = load ptr, ptr %1, align 8, !tbaa !15
  call void @end_contentinfo(ptr noundef %6)
  %7 = load ptr, ptr %1, align 8, !tbaa !15
  call void @end_pkcs12(ptr noundef %7)
  %8 = load ptr, ptr %1, align 8, !tbaa !15
  call void @start_check_pkcs12(ptr noundef %8)
  %9 = load ptr, ptr %1, align 8, !tbaa !15
  call void @start_check_contentinfo(ptr noundef %9)
  %10 = load ptr, ptr %1, align 8, !tbaa !15
  call void @check_certbag(ptr noundef %10, ptr noundef @CERT1, i32 noundef 497, ptr noundef null)
  %11 = load ptr, ptr %1, align 8, !tbaa !15
  call void @end_check_contentinfo(ptr noundef %11)
  %12 = load ptr, ptr %1, align 8, !tbaa !15
  call void @end_check_pkcs12(ptr noundef %12)
  %13 = load ptr, ptr %1, align 8, !tbaa !15
  %14 = call i32 @end_pkcs12_builder(ptr noundef %13)
  call void @llvm.lifetime.end.p0(i64 8, ptr %1) #4
  ret i32 %14
}