; Function Attrs: nounwind uwtable
define internal i32 @test_single_cert_no_attrs() #1 {
  %1 = tail call ptr @new_pkcs12_builder(ptr noundef nonnull @.str.46) #4
  tail call void @start_pkcs12(ptr noundef %1) #4
  tail call void @start_contentinfo(ptr noundef %1) #4
  tail call void @add_certbag(ptr noundef %1, ptr noundef nonnull @CERT1, i32 noundef 497, ptr noundef null) #4
  tail call void @end_contentinfo(ptr noundef %1) #4
  tail call void @end_pkcs12(ptr noundef %1) #4
  tail call void @start_check_pkcs12(ptr noundef %1) #4
  tail call void @start_check_contentinfo(ptr noundef %1) #4
  tail call void @check_certbag(ptr noundef %1, ptr noundef nonnull @CERT1, i32 noundef 497, ptr noundef null) #4
  tail call void @end_check_contentinfo(ptr noundef %1) #4
  tail call void @end_check_pkcs12(ptr noundef %1) #4
  %2 = tail call i32 @end_pkcs12_builder(ptr noundef %1) #4
  ret i32 %2
}